; Function Attrs: mustprogress uwtable
define void @_ZN5osgeo4proj4util11NameFactory15createNameSpaceERKN7dropbox6oxygen2nnISt10shared_ptrINS1_11GenericNameEEEERKNS1_11PropertyMapE(ptr dead_on_unwind noalias writable sret(%"class.dropbox::oxygen::nn.66") align 8 %0, ptr noundef nonnull align 8 dereferenceable(16) %1, ptr nocapture noundef nonnull readonly align 8 dereferenceable(8) %2) local_unnamed_addr #0 align 2 personality ptr @__gxx_personality_v0 {
  %4 = alloca %"class.std::__cxx11::basic_string", align 8
  %5 = alloca %"class.std::allocator", align 1
  %6 = alloca %"class.std::__cxx11::basic_string", align 8
  %7 = alloca %"class.std::allocator", align 1
  tail call void @_ZN5osgeo4proj4util9NameSpace14nn_make_sharedIS2_JRKN7dropbox6oxygen2nnISt10shared_ptrINS1_11GenericNameEEEEEEENS6_IS7_IT_EEEDpOT0_(ptr dead_on_unwind writable sret(%"class.dropbox::oxygen::nn.66") align 8 %0, ptr noundef nonnull align 8 dereferenceable(16) %1)
  call void @_ZNSaIcEC1Ev(ptr noundef nonnull align 1 dereferenceable(1) %5) #24
  invoke void @_ZNSt7__cxx1112basic_stringIcSt11char_traitsIcESaIcEEC1EPKcRKS3_(ptr noundef nonnull align 8 dereferenceable(32) %4, ptr noundef nonnull @.str.3, ptr noundef nonnull align 1 dereferenceable(1) %5)
          to label %8 unwind label %20

8:                                                ; preds = %3
  %9 = load ptr, ptr %0, align 8
  %10 = load ptr, ptr %9, align 8
  %11 = getelementptr inbounds i8, ptr %10, i64 24
  %12 = invoke noundef zeroext i1 @_ZNK5osgeo4proj4util11PropertyMap14getStringValueERKNSt7__cxx1112basic_stringIcSt11char_traitsIcESaIcEEERS8_(ptr noundef nonnull align 8 dereferenceable(8) %2, ptr noundef nonnull align 8 dereferenceable(32) %4, ptr noundef nonnull align 8 dereferenceable(32) %11)
          to label %13 unwind label %22

13:                                               ; preds = %8
  call void @_ZNSt7__cxx1112basic_stringIcSt11char_traitsIcESaIcEED1Ev(ptr noundef nonnull align 8 dereferenceable(32) %4) #24
  call void @_ZNSaIcED1Ev(ptr noundef nonnull align 1 dereferenceable(1) %5) #24
  call void @_ZNSaIcEC1Ev(ptr noundef nonnull align 1 dereferenceable(1) %7) #24
  invoke void @_ZNSt7__cxx1112basic_stringIcSt11char_traitsIcESaIcEEC1EPKcRKS3_(ptr noundef nonnull align 8 dereferenceable(32) %6, ptr noundef nonnull @.str.4, ptr noundef nonnull align 1 dereferenceable(1) %7)
          to label %14 unwind label %24

14:                                               ; preds = %13
  %15 = load ptr, ptr %0, align 8
  %16 = load ptr, ptr %15, align 8
  %17 = getelementptr inbounds i8, ptr %16, i64 56
  %18 = invoke noundef zeroext i1 @_ZNK5osgeo4proj4util11PropertyMap14getStringValueERKNSt7__cxx1112basic_stringIcSt11char_traitsIcESaIcEEERS8_(ptr noundef nonnull align 8 dereferenceable(8) %2, ptr noundef nonnull align 8 dereferenceable(32) %6, ptr noundef nonnull align 8 dereferenceable(32) %17)
          to label %19 unwind label %26

19:                                               ; preds = %14
  call void @_ZNSt7__cxx1112basic_stringIcSt11char_traitsIcESaIcEED1Ev(ptr noundef nonnull align 8 dereferenceable(32) %6) #24
  call void @_ZNSaIcED1Ev(ptr noundef nonnull align 1 dereferenceable(1) %7) #24
  ret void

20:                                               ; preds = %3
  %21 = landingpad { ptr, i32 }
          cleanup
  br label %28

22:                                               ; preds = %8
  %23 = landingpad { ptr, i32 }
          cleanup
  call void @_ZNSt7__cxx1112basic_stringIcSt11char_traitsIcESaIcEED1Ev(ptr noundef nonnull align 8 dereferenceable(32) %4) #24
  br label %28

24:                                               ; preds = %13
  %25 = landingpad { ptr, i32 }
          cleanup
  br label %28

26:                                               ; preds = %14
  %27 = landingpad { ptr, i32 }
          cleanup
  call void @_ZNSt7__cxx1112basic_stringIcSt11char_traitsIcESaIcEED1Ev(ptr noundef nonnull align 8 dereferenceable(32) %6) #24
  br label %28

28:                                               ; preds = %24, %26, %20, %22
  %.sink = phi ptr [ %5, %22 ], [ %5, %20 ], [ %7, %26 ], [ %7, %24 ]
  %.pn9.pn = phi { ptr, i32 } [ %23, %22 ], [ %21, %20 ], [ %27, %26 ], [ %25, %24 ]
  call void @_ZNSaIcED1Ev(ptr noundef nonnull align 1 dereferenceable(1) %.sink) #24
  call void @_ZN7dropbox6oxygen2nnISt10shared_ptrIN5osgeo4proj4util9NameSpaceEEED2Ev(ptr noundef nonnull align 8 dereferenceable(16) %0) #24
  resume { ptr, i32 } %.pn9.pn
}